target datalayout = "e-m:e-p270:32:32-p271:32:32-p272:64:64-i64:64-i128:128-f80:128-n8:16:32:64-S128"
target triple = "x86_64-pc-linux-gnu"

%struct.pointf_s = type { double, double }
%struct.Ppoly_t = type { ptr, i64 }
%struct.Agobj_s = type { %struct.Agtag_s, ptr }
%struct.Agtag_s = type { i32, i64 }
%struct.Agedge_s = type { %struct.Agobj_s, %struct.dtlink_s_, %struct.dtlink_s_, ptr }
%struct.dtlink_s_ = type { ptr, %union.anon }
%union.anon = type { ptr }

@stderr = external global ptr, align 8
@sinfo = internal global { ptr, ptr, i8, i8, [6 x i8] } { ptr @swap_ends_p, ptr @spline_merge, i8 0, i8 0, [6 x i8] zeroinitializer }, align 8
@Verbose = external global i8, align 1
@.str.7 = private unnamed_addr constant [14 x i8] c"spline %s %s\0A\00", align 1

; Function Attrs: nounwind uwtable
define internal void @finishEdge(ptr noundef %0, ptr %1, i64 %2, i32 noundef %3) #0 {
  %5 = alloca %struct.Ppoly_t, align 8
  %6 = alloca ptr, align 8
  %7 = alloca i32, align 4
  %8 = alloca i64, align 8
  %9 = alloca [16 x i8], align 16
  %10 = getelementptr inbounds nuw { ptr, i64 }, ptr %5, i32 0, i32 0
  store ptr %1, ptr %10, align 8
  %11 = getelementptr inbounds nuw { ptr, i64 }, ptr %5, i32 0, i32 1
  store i64 %2, ptr %11, align 8
  store ptr %0, ptr %6, align 8, !tbaa !73
  store i32 %3, ptr %7, align 4, !tbaa !33
  %12 = load i32, ptr %7, align 4, !tbaa !33
  %13 = icmp ne i32 %12, 0
  br i1 %13, label %14, label %56

14:                                               ; preds = %4
  call void @llvm.lifetime.start.p0(i64 8, ptr %8) #12
  store i64 0, ptr %8, align 8, !tbaa !19
  br label %15

15:                                               ; preds = %52, %14
  %16 = load i64, ptr %8, align 8, !tbaa !19
  %17 = getelementptr inbounds nuw %struct.Ppoly_t, ptr %5, i32 0, i32 1
  %18 = load i64, ptr %17, align 8, !tbaa !49
  %19 = udiv i64 %18, 2
  %20 = icmp ult i64 %16, %19
  br i1 %20, label %22, label %21

21:                                               ; preds = %15
  call void @llvm.lifetime.end.p0(i64 8, ptr %8) #12
  br label %55

22:                                               ; preds = %15
  br label %23

23:                                               ; preds = %22
  call void @llvm.lifetime.start.p0(i64 16, ptr %9) #12
  %24 = getelementptr inbounds [16 x i8], ptr %9, i64 0, i64 0
  %25 = getelementptr inbounds nuw %struct.Ppoly_t, ptr %5, i32 0, i32 0
  %26 = load ptr, ptr %25, align 8, !tbaa !51
  %27 = getelementptr inbounds nuw %struct.Ppoly_t, ptr %5, i32 0, i32 1
  %28 = load i64, ptr %27, align 8, !tbaa !49
  %29 = sub i64 %28, 1
  %30 = load i64, ptr %8, align 8, !tbaa !19
  %31 = sub i64 %29, %30
  %32 = getelementptr inbounds nuw %struct.pointf_s, ptr %26, i64 %31
  call void @llvm.memcpy.p0.p0.i64(ptr align 16 %24, ptr align 8 %32, i64 16, i1 false)
  %33 = getelementptr inbounds nuw %struct.Ppoly_t, ptr %5, i32 0, i32 0
  %34 = load ptr, ptr %33, align 8, !tbaa !51
  %35 = getelementptr inbounds nuw %struct.Ppoly_t, ptr %5, i32 0, i32 1
  %36 = load i64, ptr %35, align 8, !tbaa !49
  %37 = sub i64 %36, 1
  %38 = load i64, ptr %8, align 8, !tbaa !19
  %39 = sub i64 %37, %38
  %40 = getelementptr inbounds nuw %struct.pointf_s, ptr %34, i64 %39
  %41 = getelementptr inbounds nuw %struct.Ppoly_t, ptr %5, i32 0, i32 0
  %42 = load ptr, ptr %41, align 8, !tbaa !51
  %43 = load i64, ptr %8, align 8, !tbaa !19
  %44 = getelementptr inbounds nuw %struct.pointf_s, ptr %42, i64 %43
  call void @llvm.memcpy.p0.p0.i64(ptr align 8 %40, ptr align 8 %44, i64 16, i1 false), !tbaa.struct !38
  %45 = getelementptr inbounds nuw %struct.Ppoly_t, ptr %5, i32 0, i32 0
  %46 = load ptr, ptr %45, align 8, !tbaa !51
  %47 = load i64, ptr %8, align 8, !tbaa !19
  %48 = getelementptr inbounds nuw %struct.pointf_s, ptr %46, i64 %47
  %49 = getelementptr inbounds [16 x i8], ptr %9, i64 0, i64 0
  call void @llvm.memcpy.p0.p0.i64(ptr align 8 %48, ptr align 16 %49, i64 16, i1 false)
  call void @llvm.lifetime.end.p0(i64 16, ptr %9) #12
  br label %50

50:                                               ; preds = %23
  br label %51

51:                                               ; preds = %50
  br label %52

52:                                               ; preds = %51
  %53 = load i64, ptr %8, align 8, !tbaa !19
  %54 = add i64 %53, 1
  store i64 %54, ptr %8, align 8, !tbaa !19
  br label %15, !llvm.loop !186

55:                                               ; preds = %21
  br label %56

56:                                               ; preds = %55, %4
  %57 = load i8, ptr @Verbose, align 1, !tbaa !187
  %58 = zext i8 %57 to i32
  %59 = icmp sgt i32 %58, 1
  br i1 %59, label %60, label %93

60:                                               ; preds = %56
  %61 = load ptr, ptr @stderr, align 8, !tbaa !61
  %62 = load ptr, ptr %6, align 8, !tbaa !73
  %63 = getelementptr inbounds nuw %struct.Agobj_s, ptr %62, i32 0, i32 0
  %64 = load i32, ptr %63, align 8
  %65 = and i32 %64, 3
  %66 = icmp eq i32 %65, 3
  br i1 %66, label %67, label %69

67:                                               ; preds = %60
  %68 = load ptr, ptr %6, align 8, !tbaa !73
  br label %72

69:                                               ; preds = %60
  %70 = load ptr, ptr %6, align 8, !tbaa !73
  %71 = getelementptr inbounds %struct.Agedge_s, ptr %70, i64 1
  br label %72

72:                                               ; preds = %69, %67
  %73 = phi ptr [ %68, %67 ], [ %71, %69 ]
  %74 = getelementptr inbounds nuw %struct.Agedge_s, ptr %73, i32 0, i32 3
  %75 = load ptr, ptr %74, align 8, !tbaa !80
  %76 = call ptr @agnameof(ptr noundef %75)
  %77 = load ptr, ptr %6, align 8, !tbaa !73
  %78 = getelementptr inbounds nuw %struct.Agobj_s, ptr %77, i32 0, i32 0
  %79 = load i32, ptr %78, align 8
  %80 = and i32 %79, 3
  %81 = icmp eq i32 %80, 2
  br i1 %81, label %82, label %84

82:                                               ; preds = %72
  %83 = load ptr, ptr %6, align 8, !tbaa !73
  br label %87

84:                                               ; preds = %72
  %85 = load ptr, ptr %6, align 8, !tbaa !73
  %86 = getelementptr inbounds %struct.Agedge_s, ptr %85, i64 -1
  br label %87

87:                                               ; preds = %84, %82
  %88 = phi ptr [ %83, %82 ], [ %86, %84 ]
  %89 = getelementptr inbounds nuw %struct.Agedge_s, ptr %88, i32 0, i32 3
  %90 = load ptr, ptr %89, align 8, !tbaa !80
  %91 = call ptr @agnameof(ptr noundef %90)
  %92 = call i32 (ptr, ptr, ...) @fprintf(ptr noundef %61, ptr noundef @.str.7, ptr noundef %76, ptr noundef %91) #12
  br label %93

93:                                               ; preds = %87, %56
  %94 = load ptr, ptr %6, align 8, !tbaa !73
  %95 = load ptr, ptr %6, align 8, !tbaa !73
  %96 = getelementptr inbounds nuw %struct.Agobj_s, ptr %95, i32 0, i32 0
  %97 = load i32, ptr %96, align 8
  %98 = and i32 %97, 3
  %99 = icmp eq i32 %98, 2
  br i1 %99, label %100, label %102

100:                                              ; preds = %93
  %101 = load ptr, ptr %6, align 8, !tbaa !73
  br label %105

102:                                              ; preds = %93
  %103 = load ptr, ptr %6, align 8, !tbaa !73
  %104 = getelementptr inbounds %struct.Agedge_s, ptr %103, i64 -1
  br label %105

105:                                              ; preds = %102, %100
  %106 = phi ptr [ %101, %100 ], [ %104, %102 ]
  %107 = getelementptr inbounds nuw %struct.Agedge_s, ptr %106, i32 0, i32 3
  %108 = load ptr, ptr %107, align 8, !tbaa !80
  %109 = getelementptr inbounds nuw %struct.Ppoly_t, ptr %5, i32 0, i32 0
  %110 = load ptr, ptr %109, align 8, !tbaa !51
  %111 = getelementptr inbounds nuw %struct.Ppoly_t, ptr %5, i32 0, i32 1
  %112 = load i64, ptr %111, align 8, !tbaa !49
  call void @clip_and_install(ptr noundef %94, ptr noundef %108, ptr noundef %110, i64 noundef %112, ptr noundef @sinfo)
  %113 = load ptr, ptr %6, align 8, !tbaa !73
  call void @addEdgeLabels(ptr noundef %113)
  ret void
}