; Function Attrs: nounwind uwtable
define internal fastcc void @finishEdge(ptr noundef %0, ptr %1, i64 %2, i32 noundef range(i32 0, 2) %3) unnamed_addr #0 {
  %5 = alloca [16 x i8], align 16
  %.not = icmp eq i32 %3, 0
  br i1 %.not, label %.loopexit, label %.preheader

.preheader:                                       ; preds = %4
  %6 = lshr i64 %2, 1
  %.not27 = icmp ult i64 %2, 2
  br i1 %.not27, label %.loopexit, label %.lr.ph

.lr.ph:                                           ; preds = %.preheader
  %7 = getelementptr %struct.pointf_s, ptr %1, i64 %2
  br label %8

8:                                                ; preds = %.lr.ph, %8
  %.026 = phi i64 [ 0, %.lr.ph ], [ %12, %8 ]
  call void @llvm.lifetime.start.p0(i64 16, ptr nonnull %5)
  %9 = xor i64 %.026, -1
  %10 = getelementptr %struct.pointf_s, ptr %7, i64 %9
  call void @llvm.memcpy.p0.p0.i64(ptr noundef nonnull align 16 dereferenceable(16) %5, ptr noundef nonnull align 8 dereferenceable(16) %10, i64 16, i1 false)
  %11 = getelementptr inbounds nuw %struct.pointf_s, ptr %1, i64 %.026
  tail call void @llvm.memcpy.p0.p0.i64(ptr noundef nonnull align 8 dereferenceable(16) %10, ptr noundef nonnull align 8 dereferenceable(16) %11, i64 16, i1 false), !tbaa.struct !44
  call void @llvm.memcpy.p0.p0.i64(ptr noundef nonnull align 8 dereferenceable(16) %11, ptr noundef nonnull align 16 dereferenceable(16) %5, i64 16, i1 false)
  call void @llvm.lifetime.end.p0(i64 16, ptr nonnull %5)
  %12 = add nuw nsw i64 %.026, 1
  %exitcond.not = icmp eq i64 %12, %6
  br i1 %exitcond.not, label %.loopexit, label %8, !llvm.loop !156

.loopexit:                                        ; preds = %8, %.preheader, %4
  %13 = load i8, ptr @Verbose, align 1, !tbaa !157
  %14 = icmp ugt i8 %13, 1
  br i1 %14, label %15, label %32

15:                                               ; preds = %.loopexit
  %16 = load ptr, ptr @stderr, align 8, !tbaa !27
  %17 = load i32, ptr %0, align 8
  %18 = and i32 %17, 3
  %19 = icmp eq i32 %18, 3
  %.idx = select i1 %19, i64 0, i64 64
  %20 = getelementptr inbounds nuw i8, ptr %0, i64 %.idx
  %21 = getelementptr inbounds nuw i8, ptr %20, i64 56
  %22 = load ptr, ptr %21, align 8, !tbaa !72
  %23 = tail call ptr @agnameof(ptr noundef %22) #18
  %24 = load i32, ptr %0, align 8
  %25 = and i32 %24, 3
  %26 = icmp eq i32 %25, 2
  %.idx24 = select i1 %26, i64 0, i64 -64
  %27 = getelementptr inbounds i8, ptr %0, i64 %.idx24
  %28 = getelementptr inbounds nuw i8, ptr %27, i64 56
  %29 = load ptr, ptr %28, align 8, !tbaa !72
  %30 = tail call ptr @agnameof(ptr noundef %29) #18
  %31 = tail call i32 (ptr, ptr, ...) @fprintf(ptr noundef %16, ptr noundef nonnull @.str.7, ptr noundef %23, ptr noundef %30) #20
  br label %32

32:                                               ; preds = %15, %.loopexit
  %33 = load i32, ptr %0, align 8
  %34 = and i32 %33, 3
  %35 = icmp eq i32 %34, 2
  %.idx25 = select i1 %35, i64 0, i64 -64
  %36 = getelementptr inbounds i8, ptr %0, i64 %.idx25
  %37 = getelementptr inbounds nuw i8, ptr %36, i64 56
  %38 = load ptr, ptr %37, align 8, !tbaa !72
  tail call void @clip_and_install(ptr noundef nonnull %0, ptr noundef %38, ptr noundef %1, i64 noundef %2, ptr noundef nonnull @sinfo) #18
  tail call void @addEdgeLabels(ptr noundef nonnull %0) #18
  ret void
}